target datalayout = "e-m:e-p270:32:32-p271:32:32-p272:64:64-i64:64-i128:128-f80:128-n8:16:32:64-S128"
target triple = "x86_64-pc-linux-gnu"

%struct.lean_string_object = type { %struct.lean_object, i64, i64, i64, [0 x i8] }
%struct.lean_object = type { i32, i32 }

; Function Attrs: inlinehint mustprogress uwtable
define internal noundef i64 @_ZL20lean_string_capacityP11lean_object(ptr noundef %0) #3 {
  %2 = alloca ptr, align 8
  store ptr %0, ptr %2, align 8, !tbaa !3
  %3 = load ptr, ptr %2, align 8, !tbaa !3
  %4 = call noundef ptr @_ZL14lean_to_stringP11lean_object(ptr noundef %3)
  %5 = getelementptr inbounds nuw %struct.lean_string_object, ptr %4, i32 0, i32 2
  %6 = load i64, ptr %5, align 8, !tbaa !7
  ret i64 %6
}

; Function Attrs: inlinehint mustprogress nounwind uwtable
define internal void @_ZN4leanL12lean_deallocEP11lean_objectm(ptr noundef %0, i64 noundef %1) #9 {
  %3 = alloca ptr, align 8
  %4 = alloca i64, align 8
  store ptr %0, ptr %3, align 8, !tbaa !3
  store i64 %1, ptr %4, align 8, !tbaa !7
  %5 = load ptr, ptr %3, align 8, !tbaa !3
  %6 = load i64, ptr %4, align 8, !tbaa !7
  call void @mi_free_size(ptr noundef %5, i64 noundef %6) #23
  ret void
}

; Function Attrs: inlinehint mustprogress uwtable
define internal noundef i64 @_ZL21lean_string_byte_sizeP11lean_object(ptr noundef %0) #3 {
  %2 = alloca ptr, align 8
  store ptr %0, ptr %2, align 8, !tbaa !3
  %3 = load ptr, ptr %2, align 8, !tbaa !3
  %4 = call noundef i64 @_ZL20lean_string_capacityP11lean_object(ptr noundef %3)
  %5 = add i64 32, %4
  ret i64 %5
}

; Function Attrs: inlinehint mustprogress uwtable
define linkonce_odr hidden noundef ptr @_ZN4lean11string_cstrEP11lean_object(ptr noundef %0) #3 comdat {
  %2 = alloca ptr, align 8
  store ptr %0, ptr %2, align 8, !tbaa !3
  %3 = load ptr, ptr %2, align 8, !tbaa !3
  %4 = call noundef ptr @_ZL16lean_string_cstrP11lean_object(ptr noundef %3)
  ret ptr %4
}

; Function Attrs: inlinehint mustprogress uwtable
define linkonce_odr hidden noundef ptr @_ZN4lean12alloc_stringEmmm(i64 noundef %0, i64 noundef %1, i64 noundef %2) #3 comdat {
  %4 = alloca i64, align 8
  %5 = alloca i64, align 8
  %6 = alloca i64, align 8
  store i64 %0, ptr %4, align 8, !tbaa !7
  store i64 %1, ptr %5, align 8, !tbaa !7
  store i64 %2, ptr %6, align 8, !tbaa !7
  %7 = load i64, ptr %4, align 8, !tbaa !7
  %8 = load i64, ptr %5, align 8, !tbaa !7
  %9 = load i64, ptr %6, align 8, !tbaa !7
  %10 = call noundef ptr @_ZL17lean_alloc_stringmmm(i64 noundef %7, i64 noundef %8, i64 noundef %9)
  ret ptr %10
}

; Function Attrs: inlinehint mustprogress uwtable
define linkonce_odr hidden noundef i64 @_ZN4lean10string_lenEP11lean_object(ptr noundef %0) #3 comdat {
  %2 = alloca ptr, align 8
  store ptr %0, ptr %2, align 8, !tbaa !3
  %3 = load ptr, ptr %2, align 8, !tbaa !3
  %4 = call noundef i64 @_ZL15lean_string_lenP11lean_object(ptr noundef %3)
  ret i64 %4
}

; Function Attrs: inlinehint mustprogress uwtable
define linkonce_odr hidden noundef i64 @_ZN4lean15string_capacityEP11lean_object(ptr noundef %0) #3 comdat {
  %2 = alloca ptr, align 8
  store ptr %0, ptr %2, align 8, !tbaa !3
  %3 = load ptr, ptr %2, align 8, !tbaa !3
  %4 = call noundef i64 @_ZL20lean_string_capacityP11lean_object(ptr noundef %3)
  ret i64 %4
}

; Function Attrs: inlinehint mustprogress uwtable
define linkonce_odr hidden noundef i64 @_ZN4lean11string_sizeEP11lean_object(ptr noundef %0) #3 comdat {
  %2 = alloca ptr, align 8
  store ptr %0, ptr %2, align 8, !tbaa !3
  %3 = load ptr, ptr %2, align 8, !tbaa !3
  %4 = call noundef i64 @_ZL16lean_string_sizeP11lean_object(ptr noundef %3)
  ret i64 %4
}

; Function Attrs: alwaysinline mustprogress uwtable
define internal void @_ZL12lean_dec_refP11lean_object(ptr noundef %0) #8 {
  %2 = alloca ptr, align 8
  store ptr %0, ptr %2, align 8, !tbaa !3
  %3 = load ptr, ptr %2, align 8, !tbaa !3
  %4 = getelementptr inbounds nuw %struct.lean_object, ptr %3, i32 0, i32 0
  %5 = load i32, ptr %4, align 4, !tbaa !31
  %6 = icmp sgt i32 %5, 1
  %7 = zext i1 %6 to i64
  %8 = call i64 @llvm.expect.i64(i64 %7, i64 1)
  %9 = icmp ne i64 %8, 0
  br i1 %9, label %10, label %15

10:                                               ; preds = %1
  %11 = load ptr, ptr %2, align 8, !tbaa !3
  %12 = getelementptr inbounds nuw %struct.lean_object, ptr %11, i32 0, i32 0
  %13 = load i32, ptr %12, align 4, !tbaa !31
  %14 = add nsw i32 %13, -1
  store i32 %14, ptr %12, align 4, !tbaa !31
  br label %23

15:                                               ; preds = %1
  %16 = load ptr, ptr %2, align 8, !tbaa !3
  %17 = getelementptr inbounds nuw %struct.lean_object, ptr %16, i32 0, i32 0
  %18 = load i32, ptr %17, align 4, !tbaa !31
  %19 = icmp ne i32 %18, 0
  br i1 %19, label %20, label %22

20:                                               ; preds = %15
  %21 = load ptr, ptr %2, align 8, !tbaa !3
  call void @lean_dec_ref_cold(ptr noundef %21)
  br label %22

22:                                               ; preds = %20, %15
  br label %23

23:                                               ; preds = %22, %10
  ret void
}

; Function Attrs: inlinehint mustprogress nounwind uwtable
define internal void @_ZL18lean_set_st_headerP11lean_objectjj(ptr noundef %0, i32 noundef %1, i32 noundef %2) #9 {
  %4 = alloca ptr, align 8
  %5 = alloca i32, align 4
  %6 = alloca i32, align 4
  store ptr %0, ptr %4, align 8, !tbaa !3
  store i32 %1, ptr %5, align 4, !tbaa !19
  store i32 %2, ptr %6, align 4, !tbaa !19
  %7 = load ptr, ptr %4, align 8, !tbaa !3
  %8 = getelementptr inbounds nuw %struct.lean_object, ptr %7, i32 0, i32 0
  store i32 1, ptr %8, align 4, !tbaa !31
  %9 = load i32, ptr %5, align 4, !tbaa !19
  %10 = load ptr, ptr %4, align 8, !tbaa !3
  %11 = getelementptr inbounds nuw %struct.lean_object, ptr %10, i32 0, i32 1
  %12 = load i32, ptr %11, align 4
  %13 = and i32 %9, 255
  %14 = shl i32 %13, 24
  %15 = and i32 %12, 16777215
  %16 = or i32 %15, %14
  store i32 %16, ptr %11, align 4
  %17 = load i32, ptr %6, align 4, !tbaa !19
  %18 = load ptr, ptr %4, align 8, !tbaa !3
  %19 = getelementptr inbounds nuw %struct.lean_object, ptr %18, i32 0, i32 1
  %20 = load i32, ptr %19, align 4
  %21 = and i32 %17, 255
  %22 = shl i32 %21, 16
  %23 = and i32 %20, -16711681
  %24 = or i32 %23, %22
  store i32 %24, ptr %19, align 4
  ret void
}

; Function Attrs: mustprogress uwtable
define ptr @lean_alloc_object(i64 noundef %0) #0 {
  %2 = alloca i64, align 8
  %3 = alloca ptr, align 8
  %4 = alloca ptr, align 8
  store i64 %0, ptr %2, align 8, !tbaa !7
  call void @llvm.lifetime.start.p0(i64 8, ptr %3) #23
  %5 = load i64, ptr %2, align 8, !tbaa !7
  %6 = call noalias ptr @mi_malloc(i64 noundef %5) #23
  store ptr %6, ptr %3, align 8, !tbaa !3
  %7 = load ptr, ptr %3, align 8, !tbaa !3
  %8 = icmp eq ptr %7, null
  br i1 %8, label %9, label %10

9:                                                ; preds = %1
  call void @lean_internal_panic_out_of_memory() #25
  unreachable

10:                                               ; preds = %1
  call void @llvm.lifetime.start.p0(i64 8, ptr %4) #23
  %11 = load ptr, ptr %3, align 8, !tbaa !3
  store ptr %11, ptr %4, align 8, !tbaa !3
  %12 = load ptr, ptr %4, align 8, !tbaa !3
  %13 = getelementptr inbounds nuw %struct.lean_object, ptr %12, i32 0, i32 1
  %14 = load i32, ptr %13, align 4
  %15 = and i32 %14, -65536
  %16 = or i32 %15, 0
  store i32 %16, ptr %13, align 4
  %17 = load ptr, ptr %4, align 8, !tbaa !3
  call void @llvm.lifetime.end.p0(i64 8, ptr %4) #23
  call void @llvm.lifetime.end.p0(i64 8, ptr %3) #23
  ret ptr %17
}

; Function Attrs: inlinehint mustprogress nounwind uwtable
define internal noundef zeroext i1 @_ZL10lean_is_stP11lean_object(ptr noundef %0) #9 {
  %2 = alloca ptr, align 8
  store ptr %0, ptr %2, align 8, !tbaa !3
  %3 = load ptr, ptr %2, align 8, !tbaa !3
  %4 = getelementptr inbounds nuw %struct.lean_object, ptr %3, i32 0, i32 0
  %5 = load i32, ptr %4, align 4, !tbaa !31
  %6 = icmp sgt i32 %5, 0
  ret i1 %6
}

; Function Attrs: inlinehint mustprogress nounwind uwtable
define internal noundef ptr @_ZL14lean_to_stringP11lean_object(ptr noundef %0) #9 {
  %2 = alloca ptr, align 8
  store ptr %0, ptr %2, align 8, !tbaa !3
  %3 = load ptr, ptr %2, align 8, !tbaa !3
  ret ptr %3
}

; Function Attrs: mustprogress uwtable
define internal noundef ptr @_ZN4leanL22string_ensure_capacityEP11lean_objectm(ptr noundef %0, i64 noundef %1) #0 {
  %3 = alloca ptr, align 8
  %4 = alloca ptr, align 8
  %5 = alloca i64, align 8
  %6 = alloca i64, align 8
  %7 = alloca i64, align 8
  %8 = alloca ptr, align 8
  %9 = alloca i32, align 4
  store ptr %0, ptr %4, align 8, !tbaa !3
  store i64 %1, ptr %5, align 8, !tbaa !7
  call void @llvm.lifetime.start.p0(i64 8, ptr %6) #23
  %10 = load ptr, ptr %4, align 8, !tbaa !3
  %11 = call noundef i64 @_ZN4lean11string_sizeEP11lean_object(ptr noundef %10)
  store i64 %11, ptr %6, align 8, !tbaa !7
  call void @llvm.lifetime.start.p0(i64 8, ptr %7) #23
  %12 = load ptr, ptr %4, align 8, !tbaa !3
  %13 = call noundef i64 @_ZN4lean15string_capacityEP11lean_object(ptr noundef %12)
  store i64 %13, ptr %7, align 8, !tbaa !7
  %14 = load i64, ptr %6, align 8, !tbaa !7
  %15 = load i64, ptr %5, align 8, !tbaa !7
  %16 = add i64 %14, %15
  %17 = load i64, ptr %7, align 8, !tbaa !7
  %18 = icmp ugt i64 %16, %17
  br i1 %18, label %19, label %38

19:                                               ; preds = %2
  call void @llvm.lifetime.start.p0(i64 8, ptr %8) #23
  %20 = load i64, ptr %6, align 8, !tbaa !7
  %21 = load i64, ptr %7, align 8, !tbaa !7
  %22 = load i64, ptr %6, align 8, !tbaa !7
  %23 = add i64 %21, %22
  %24 = load i64, ptr %5, align 8, !tbaa !7
  %25 = add i64 %23, %24
  %26 = load ptr, ptr %4, align 8, !tbaa !3
  %27 = call noundef i64 @_ZN4lean10string_lenEP11lean_object(ptr noundef %26)
  %28 = call noundef ptr @_ZN4lean12alloc_stringEmmm(i64 noundef %20, i64 noundef %25, i64 noundef %27)
  store ptr %28, ptr %8, align 8, !tbaa !3
  %29 = load ptr, ptr %8, align 8, !tbaa !3
  %30 = call noundef ptr @_ZN4leanL13w_string_cstrEP11lean_object(ptr noundef %29)
  %31 = load ptr, ptr %4, align 8, !tbaa !3
  %32 = call noundef ptr @_ZN4lean11string_cstrEP11lean_object(ptr noundef %31)
  %33 = load i64, ptr %6, align 8, !tbaa !7
  call void @llvm.memcpy.p0.p0.i64(ptr align 1 %30, ptr align 1 %32, i64 %33, i1 false)
  %34 = load ptr, ptr %4, align 8, !tbaa !3
  %35 = load ptr, ptr %4, align 8, !tbaa !3
  %36 = call noundef i64 @_ZL21lean_string_byte_sizeP11lean_object(ptr noundef %35)
  call void @_ZN4leanL12lean_deallocEP11lean_objectm(ptr noundef %34, i64 noundef %36)
  %37 = load ptr, ptr %8, align 8, !tbaa !3
  store ptr %37, ptr %3, align 8
  store i32 1, ptr %9, align 4
  call void @llvm.lifetime.end.p0(i64 8, ptr %8) #23
  br label %40

38:                                               ; preds = %2
  %39 = load ptr, ptr %4, align 8, !tbaa !3
  store ptr %39, ptr %3, align 8
  store i32 1, ptr %9, align 4
  br label %40

40:                                               ; preds = %38, %19
  call void @llvm.lifetime.end.p0(i64 8, ptr %7) #23
  call void @llvm.lifetime.end.p0(i64 8, ptr %6) #23
  %41 = load ptr, ptr %3, align 8
  ret ptr %41
}

; Function Attrs: inlinehint mustprogress uwtable
define linkonce_odr hidden void @_ZN4lean7dec_refEP11lean_object(ptr noundef %0) #3 comdat {
  %2 = alloca ptr, align 8
  store ptr %0, ptr %2, align 8, !tbaa !3
  %3 = load ptr, ptr %2, align 8, !tbaa !3
  call void @_ZL12lean_dec_refP11lean_object(ptr noundef %3)
  ret void
}

; Function Attrs: inlinehint mustprogress uwtable
define internal noundef ptr @_ZL16lean_string_cstrP11lean_object(ptr noundef %0) #3 {
  %2 = alloca ptr, align 8
  store ptr %0, ptr %2, align 8, !tbaa !3
  %3 = load ptr, ptr %2, align 8, !tbaa !3
  %4 = call noundef ptr @_ZL14lean_to_stringP11lean_object(ptr noundef %3)
  %5 = getelementptr inbounds nuw %struct.lean_string_object, ptr %4, i32 0, i32 4
  %6 = getelementptr inbounds [0 x i8], ptr %5, i64 0, i64 0
  ret ptr %6
}

; Function Attrs: inlinehint mustprogress uwtable
define internal noundef ptr @_ZN4leanL13w_string_cstrEP11lean_object(ptr noundef %0) #3 {
  %2 = alloca ptr, align 8
  store ptr %0, ptr %2, align 8, !tbaa !3
  %3 = load ptr, ptr %2, align 8, !tbaa !3
  %4 = call noundef ptr @_ZL14lean_to_stringP11lean_object(ptr noundef %3)
  %5 = getelementptr inbounds nuw %struct.lean_string_object, ptr %4, i32 0, i32 4
  %6 = getelementptr inbounds [0 x i8], ptr %5, i64 0, i64 0
  ret ptr %6
}

; Function Attrs: inlinehint mustprogress uwtable
define internal noundef ptr @_ZL17lean_alloc_stringmmm(i64 noundef %0, i64 noundef %1, i64 noundef %2) #3 {
  %4 = alloca i64, align 8
  %5 = alloca i64, align 8
  %6 = alloca i64, align 8
  %7 = alloca ptr, align 8
  store i64 %0, ptr %4, align 8, !tbaa !7
  store i64 %1, ptr %5, align 8, !tbaa !7
  store i64 %2, ptr %6, align 8, !tbaa !7
  call void @llvm.lifetime.start.p0(i64 8, ptr %7) #23
  %8 = load i64, ptr %5, align 8, !tbaa !7
  %9 = add i64 32, %8
  %10 = call ptr @lean_alloc_object(i64 noundef %9)
  store ptr %10, ptr %7, align 8, !tbaa !3
  %11 = load ptr, ptr %7, align 8, !tbaa !3
  call void @_ZL18lean_set_st_headerP11lean_objectjj(ptr noundef %11, i32 noundef 249, i32 noundef 0)
  %12 = load i64, ptr %4, align 8, !tbaa !7
  %13 = load ptr, ptr %7, align 8, !tbaa !3
  %14 = getelementptr inbounds nuw %struct.lean_string_object, ptr %13, i32 0, i32 1
  store i64 %12, ptr %14, align 8, !tbaa !7
  %15 = load i64, ptr %5, align 8, !tbaa !7
  %16 = load ptr, ptr %7, align 8, !tbaa !3
  %17 = getelementptr inbounds nuw %struct.lean_string_object, ptr %16, i32 0, i32 2
  store i64 %15, ptr %17, align 8, !tbaa !7
  %18 = load i64, ptr %6, align 8, !tbaa !7
  %19 = load ptr, ptr %7, align 8, !tbaa !3
  %20 = getelementptr inbounds nuw %struct.lean_string_object, ptr %19, i32 0, i32 3
  store i64 %18, ptr %20, align 8, !tbaa !7
  %21 = load ptr, ptr %7, align 8, !tbaa !3
  call void @llvm.lifetime.end.p0(i64 8, ptr %7) #23
  ret ptr %21
}

; Function Attrs: mustprogress nounwind uwtable
define internal noundef i64 @_ZN4leanL11mk_capacityEm(i64 noundef %0) #5 {
  %2 = alloca i64, align 8
  store i64 %0, ptr %2, align 8, !tbaa !7
  %3 = load i64, ptr %2, align 8, !tbaa !7
  %4 = mul i64 %3, 2
  ret i64 %4
}

; Function Attrs: inlinehint mustprogress nounwind uwtable
define internal noundef zeroext i1 @_ZL17lean_is_exclusiveP11lean_object(ptr noundef %0) #9 {
  %2 = alloca i1, align 1
  %3 = alloca ptr, align 8
  store ptr %0, ptr %3, align 8, !tbaa !3
  %4 = load ptr, ptr %3, align 8, !tbaa !3
  %5 = call noundef zeroext i1 @_ZL10lean_is_stP11lean_object(ptr noundef %4)
  %6 = zext i1 %5 to i64
  %7 = call i64 @llvm.expect.i64(i64 %6, i64 1)
  %8 = icmp ne i64 %7, 0
  br i1 %8, label %9, label %14

9:                                                ; preds = %1
  %10 = load ptr, ptr %3, align 8, !tbaa !3
  %11 = getelementptr inbounds nuw %struct.lean_object, ptr %10, i32 0, i32 0
  %12 = load i32, ptr %11, align 4, !tbaa !31
  %13 = icmp eq i32 %12, 1
  store i1 %13, ptr %2, align 1
  br label %15

14:                                               ; preds = %1
  store i1 false, ptr %2, align 1
  br label %15

15:                                               ; preds = %14, %9
  %16 = load i1, ptr %2, align 1
  ret i1 %16
}

; Function Attrs: inlinehint mustprogress uwtable
define internal noundef i64 @_ZL15lean_string_lenP11lean_object(ptr noundef %0) #3 {
  %2 = alloca ptr, align 8
  store ptr %0, ptr %2, align 8, !tbaa !3
  %3 = load ptr, ptr %2, align 8, !tbaa !3
  %4 = call noundef ptr @_ZL14lean_to_stringP11lean_object(ptr noundef %3)
  %5 = getelementptr inbounds nuw %struct.lean_string_object, ptr %4, i32 0, i32 3
  %6 = load i64, ptr %5, align 8, !tbaa !7
  ret i64 %6
}

; Function Attrs: inlinehint mustprogress uwtable
define internal noundef i64 @_ZL16lean_string_sizeP11lean_object(ptr noundef %0) #3 {
  %2 = alloca ptr, align 8
  store ptr %0, ptr %2, align 8, !tbaa !3
  %3 = load ptr, ptr %2, align 8, !tbaa !3
  %4 = call noundef ptr @_ZL14lean_to_stringP11lean_object(ptr noundef %3)
  %5 = getelementptr inbounds nuw %struct.lean_string_object, ptr %4, i32 0, i32 1
  %6 = load i64, ptr %5, align 8, !tbaa !7
  ret i64 %6
}

; Function Attrs: mustprogress uwtable
define ptr @lean_string_append(ptr noundef %0, ptr noundef %1) #0 {
  %3 = alloca ptr, align 8
  %4 = alloca ptr, align 8
  %5 = alloca i64, align 8
  %6 = alloca i64, align 8
  %7 = alloca i64, align 8
  %8 = alloca i64, align 8
  %9 = alloca i64, align 8
  %10 = alloca i64, align 8
  %11 = alloca ptr, align 8
  store ptr %0, ptr %3, align 8, !tbaa !3
  store ptr %1, ptr %4, align 8, !tbaa !3
  call void @llvm.lifetime.start.p0(i64 8, ptr %5) #23
  %12 = load ptr, ptr %3, align 8, !tbaa !3
  %13 = call noundef i64 @_ZL16lean_string_sizeP11lean_object(ptr noundef %12)
  store i64 %13, ptr %5, align 8, !tbaa !7
  call void @llvm.lifetime.start.p0(i64 8, ptr %6) #23
  %14 = load ptr, ptr %4, align 8, !tbaa !3
  %15 = call noundef i64 @_ZL16lean_string_sizeP11lean_object(ptr noundef %14)
  store i64 %15, ptr %6, align 8, !tbaa !7
  call void @llvm.lifetime.start.p0(i64 8, ptr %7) #23
  %16 = load ptr, ptr %3, align 8, !tbaa !3
  %17 = call noundef i64 @_ZL15lean_string_lenP11lean_object(ptr noundef %16)
  store i64 %17, ptr %7, align 8, !tbaa !7
  call void @llvm.lifetime.start.p0(i64 8, ptr %8) #23
  %18 = load ptr, ptr %4, align 8, !tbaa !3
  %19 = call noundef i64 @_ZL15lean_string_lenP11lean_object(ptr noundef %18)
  store i64 %19, ptr %8, align 8, !tbaa !7
  call void @llvm.lifetime.start.p0(i64 8, ptr %9) #23
  %20 = load i64, ptr %7, align 8, !tbaa !7
  %21 = load i64, ptr %8, align 8, !tbaa !7
  %22 = add i64 %20, %21
  store i64 %22, ptr %9, align 8, !tbaa !7
  call void @llvm.lifetime.start.p0(i64 8, ptr %10) #23
  %23 = load i64, ptr %5, align 8, !tbaa !7
  %24 = load i64, ptr %6, align 8, !tbaa !7
  %25 = add i64 %23, %24
  %26 = sub i64 %25, 1
  store i64 %26, ptr %10, align 8, !tbaa !7
  call void @llvm.lifetime.start.p0(i64 8, ptr %11) #23
  %27 = load ptr, ptr %3, align 8, !tbaa !3
  %28 = call noundef zeroext i1 @_ZL17lean_is_exclusiveP11lean_object(ptr noundef %27)
  br i1 %28, label %42, label %29

29:                                               ; preds = %2
  %30 = load i64, ptr %10, align 8, !tbaa !7
  %31 = load i64, ptr %10, align 8, !tbaa !7
  %32 = call noundef i64 @_ZN4leanL11mk_capacityEm(i64 noundef %31)
  %33 = load i64, ptr %9, align 8, !tbaa !7
  %34 = call noundef ptr @_ZL17lean_alloc_stringmmm(i64 noundef %30, i64 noundef %32, i64 noundef %33)
  store ptr %34, ptr %11, align 8, !tbaa !3
  %35 = load ptr, ptr %11, align 8, !tbaa !3
  %36 = call noundef ptr @_ZN4leanL13w_string_cstrEP11lean_object(ptr noundef %35)
  %37 = load ptr, ptr %3, align 8, !tbaa !3
  %38 = call noundef ptr @_ZL16lean_string_cstrP11lean_object(ptr noundef %37)
  %39 = load i64, ptr %5, align 8, !tbaa !7
  %40 = sub i64 %39, 1
  call void @llvm.memcpy.p0.p0.i64(ptr align 1 %36, ptr align 1 %38, i64 %40, i1 false)
  %41 = load ptr, ptr %3, align 8, !tbaa !3
  call void @_ZN4lean7dec_refEP11lean_object(ptr noundef %41)
  br label %47

42:                                               ; preds = %2
  %43 = load ptr, ptr %3, align 8, !tbaa !3
  %44 = load i64, ptr %6, align 8, !tbaa !7
  %45 = sub i64 %44, 1
  %46 = call noundef ptr @_ZN4leanL22string_ensure_capacityEP11lean_objectm(ptr noundef %43, i64 noundef %45)
  store ptr %46, ptr %11, align 8, !tbaa !3
  br label %47

47:                                               ; preds = %42, %29
  %48 = load ptr, ptr %11, align 8, !tbaa !3
  %49 = call noundef ptr @_ZN4leanL13w_string_cstrEP11lean_object(ptr noundef %48)
  %50 = load i64, ptr %5, align 8, !tbaa !7
  %51 = getelementptr inbounds nuw i8, ptr %49, i64 %50
  %52 = getelementptr inbounds i8, ptr %51, i64 -1
  %53 = load ptr, ptr %4, align 8, !tbaa !3
  %54 = call noundef ptr @_ZL16lean_string_cstrP11lean_object(ptr noundef %53)
  %55 = load i64, ptr %6, align 8, !tbaa !7
  %56 = sub i64 %55, 1
  call void @llvm.memcpy.p0.p0.i64(ptr align 1 %52, ptr align 1 %54, i64 %56, i1 false)
  %57 = load i64, ptr %10, align 8, !tbaa !7
  %58 = load ptr, ptr %11, align 8, !tbaa !3
  %59 = call noundef ptr @_ZL14lean_to_stringP11lean_object(ptr noundef %58)
  %60 = getelementptr inbounds nuw %struct.lean_string_object, ptr %59, i32 0, i32 1
  store i64 %57, ptr %60, align 8, !tbaa !7
  %61 = load i64, ptr %9, align 8, !tbaa !7
  %62 = load ptr, ptr %11, align 8, !tbaa !3
  %63 = call noundef ptr @_ZL14lean_to_stringP11lean_object(ptr noundef %62)
  %64 = getelementptr inbounds nuw %struct.lean_string_object, ptr %63, i32 0, i32 3
  store i64 %61, ptr %64, align 8, !tbaa !7
  %65 = load ptr, ptr %11, align 8, !tbaa !3
  %66 = call noundef ptr @_ZN4leanL13w_string_cstrEP11lean_object(ptr noundef %65)
  %67 = load i64, ptr %10, align 8, !tbaa !7
  %68 = sub i64 %67, 1
  %69 = getelementptr inbounds nuw i8, ptr %66, i64 %68
  store i8 0, ptr %69, align 1, !tbaa !26
  %70 = load ptr, ptr %11, align 8, !tbaa !3
  call void @llvm.lifetime.end.p0(i64 8, ptr %11) #23
  call void @llvm.lifetime.end.p0(i64 8, ptr %10) #23
  call void @llvm.lifetime.end.p0(i64 8, ptr %9) #23
  call void @llvm.lifetime.end.p0(i64 8, ptr %8) #23
  call void @llvm.lifetime.end.p0(i64 8, ptr %7) #23
  call void @llvm.lifetime.end.p0(i64 8, ptr %6) #23
  call void @llvm.lifetime.end.p0(i64 8, ptr %5) #23
  ret ptr %70
}