; Function Attrs: mustprogress uwtable
define ptr @lean_string_append(ptr noundef %0, ptr noundef readonly captures(none) %1) local_unnamed_addr #0 {
  %3 = getelementptr i8, ptr %0, i64 8
  %.val28 = load i64, ptr %3, align 8, !tbaa !30
  %4 = getelementptr i8, ptr %1, i64 8
  %.val = load i64, ptr %4, align 8, !tbaa !30
  %5 = getelementptr i8, ptr %0, i64 24
  %.val30 = load i64, ptr %5, align 8, !tbaa !30
  %6 = getelementptr i8, ptr %1, i64 24
  %.val29 = load i64, ptr %6, align 8, !tbaa !30
  %7 = add i64 %.val29, %.val30
  %8 = add i64 %.val, %.val28
  %9 = add i64 %8, -1
  %.val31 = load i32, ptr %0, align 4, !tbaa !23
  %10 = icmp eq i32 %.val31, 1
  br i1 %10, label %30, label %11

11:                                               ; preds = %2
  %12 = shl i64 %9, 1
  %13 = add i64 %12, 32
  %14 = tail call noalias ptr @mi_malloc(i64 noundef %13) #40
  %15 = icmp eq ptr %14, null
  br i1 %15, label %16, label %_ZL17lean_alloc_stringmmm.exit

16:                                               ; preds = %11
  tail call void @lean_internal_panic_out_of_memory() #43
  unreachable

_ZL17lean_alloc_stringmmm.exit:                   ; preds = %11
  %17 = getelementptr inbounds nuw i8, ptr %14, i64 4
  store i32 1, ptr %14, align 4, !tbaa !23
  store i32 -117440512, ptr %17, align 4
  %18 = getelementptr inbounds nuw i8, ptr %14, i64 8
  store i64 %9, ptr %18, align 8, !tbaa !30
  %19 = getelementptr inbounds nuw i8, ptr %14, i64 16
  store i64 %12, ptr %19, align 8, !tbaa !30
  %20 = getelementptr inbounds nuw i8, ptr %14, i64 24
  store i64 %7, ptr %20, align 8, !tbaa !30
  %21 = getelementptr inbounds nuw i8, ptr %14, i64 32
  %22 = getelementptr inbounds nuw i8, ptr %0, i64 32
  %23 = add i64 %.val28, -1
  tail call void @llvm.memcpy.p0.p0.i64(ptr nonnull align 1 %21, ptr nonnull align 1 %22, i64 %23, i1 false)
  %24 = load i32, ptr %0, align 4, !tbaa !23
  %25 = icmp sgt i32 %24, 1
  br i1 %25, label %26, label %28, !prof !25

26:                                               ; preds = %_ZL17lean_alloc_stringmmm.exit
  %27 = add nsw i32 %24, -1
  store i32 %27, ptr %0, align 4, !tbaa !23
  br label %_ZN4lean7dec_refEP11lean_object.exit

28:                                               ; preds = %_ZL17lean_alloc_stringmmm.exit
  %.not.i.i = icmp eq i32 %24, 0
  br i1 %.not.i.i, label %_ZN4lean7dec_refEP11lean_object.exit, label %29

29:                                               ; preds = %28
  tail call void @lean_dec_ref_cold(ptr noundef nonnull %0)
  br label %_ZN4lean7dec_refEP11lean_object.exit

30:                                               ; preds = %2
  %31 = getelementptr i8, ptr %0, i64 16
  %.val.i18.i = load i64, ptr %31, align 8, !tbaa !30
  %32 = add i64 %.val28, -1
  %33 = add i64 %32, %.val
  %34 = icmp ugt i64 %33, %.val.i18.i
  br i1 %34, label %35, label %_ZN4lean7dec_refEP11lean_object.exit

35:                                               ; preds = %30
  %36 = add i64 %.val.i18.i, %33
  %37 = add i64 %36, 32
  %38 = tail call noalias ptr @mi_malloc(i64 noundef %37) #40
  %39 = icmp eq ptr %38, null
  br i1 %39, label %40, label %_ZN4lean12alloc_stringEmmm.exit.i

40:                                               ; preds = %35
  tail call void @lean_internal_panic_out_of_memory() #43
  unreachable

_ZN4lean12alloc_stringEmmm.exit.i:                ; preds = %35
  %41 = getelementptr inbounds nuw i8, ptr %38, i64 4
  store i32 1, ptr %38, align 4, !tbaa !23
  store i32 -117440512, ptr %41, align 4
  %42 = getelementptr inbounds nuw i8, ptr %38, i64 8
  store i64 %.val28, ptr %42, align 8, !tbaa !30
  %43 = getelementptr inbounds nuw i8, ptr %38, i64 16
  store i64 %36, ptr %43, align 8, !tbaa !30
  %44 = getelementptr inbounds nuw i8, ptr %38, i64 24
  store i64 %.val30, ptr %44, align 8, !tbaa !30
  %45 = getelementptr inbounds nuw i8, ptr %38, i64 32
  %46 = getelementptr inbounds nuw i8, ptr %0, i64 32
  tail call void @llvm.memcpy.p0.p0.i64(ptr nonnull align 1 %45, ptr nonnull align 1 %46, i64 %.val28, i1 false)
  %.val.i = load i64, ptr %31, align 8, !tbaa !30
  %47 = add i64 %.val.i, 32
  tail call void @mi_free_size(ptr noundef nonnull %0, i64 noundef %47) #40
  br label %_ZN4lean7dec_refEP11lean_object.exit

_ZN4lean7dec_refEP11lean_object.exit:             ; preds = %_ZN4lean12alloc_stringEmmm.exit.i, %30, %29, %28, %26
  %.0 = phi ptr [ %14, %26 ], [ %14, %28 ], [ %14, %29 ], [ %38, %_ZN4lean12alloc_stringEmmm.exit.i ], [ %0, %30 ]
  %48 = getelementptr inbounds nuw i8, ptr %.0, i64 32
  %49 = getelementptr inbounds nuw i8, ptr %48, i64 %.val28
  %50 = getelementptr inbounds i8, ptr %49, i64 -1
  %51 = getelementptr inbounds nuw i8, ptr %1, i64 32
  %52 = add i64 %.val, -1
  tail call void @llvm.memcpy.p0.p0.i64(ptr nonnull align 1 %50, ptr nonnull align 1 %51, i64 %52, i1 false)
  %53 = getelementptr inbounds nuw i8, ptr %.0, i64 8
  store i64 %9, ptr %53, align 8, !tbaa !30
  %54 = getelementptr inbounds nuw i8, ptr %.0, i64 24
  store i64 %7, ptr %54, align 8, !tbaa !30
  %55 = getelementptr i8, ptr %48, i64 %8
  %56 = getelementptr i8, ptr %55, i64 -2
  store i8 0, ptr %56, align 1, !tbaa !57
  ret ptr %.0
}